target datalayout = "e-m:e-p270:32:32-p271:32:32-p272:64:64-i64:64-i128:128-f80:128-n8:16:32:64-S128"
target triple = "x86_64-pc-linux-gnu"

%class.OopClosure = type { ptr }
%class.ReferenceLocateClosure = type <{ %class.OopClosure, ptr, %struct.RootCallbackInfo, i8, [7 x i8] }>
%struct.RootCallbackInfo = type { ptr, ptr, ptr, i32, i32 }
%class.ReferenceToThreadRootClosure = type <{ ptr, i8, [7 x i8] }>

@_ZTV22ReferenceLocateClosure = hidden unnamed_addr constant { [4 x ptr] } { [4 x ptr] [ptr null, ptr null, ptr @_ZN22ReferenceLocateClosure6do_oopEPP7oopDesc, ptr @_ZN22ReferenceLocateClosure6do_oopEP9narrowOop] }, align 8
@_ZTV10OopClosure = linkonce_odr hidden unnamed_addr constant { [4 x ptr] } { [4 x ptr] [ptr null, ptr null, ptr @__cxa_pure_virtual, ptr @__cxa_pure_virtual] }, comdat, align 8

; Function Attrs: mustprogress nounwind uwtable
define linkonce_odr hidden void @_ZN10OopClosureC2Ev(ptr noundef nonnull align 8 dereferenceable(8) %0) unnamed_addr #1 comdat align 2 {
  %2 = alloca ptr, align 8
  store ptr %0, ptr %2, align 8
  %3 = load ptr, ptr %2, align 8
  store ptr getelementptr inbounds inrange(-16, 16) ({ [4 x ptr] }, ptr @_ZTV10OopClosure, i32 0, i32 0, i32 2), ptr %3, align 8
  ret void
}

; Function Attrs: mustprogress nounwind uwtable
define linkonce_odr hidden noundef zeroext i1 @_ZNK22ReferenceLocateClosure8completeEv(ptr noundef nonnull align 8 dereferenceable(49) %0) #1 comdat align 2 {
  %2 = alloca ptr, align 8
  store ptr %0, ptr %2, align 8
  %3 = load ptr, ptr %2, align 8
  %4 = getelementptr inbounds %class.ReferenceLocateClosure, ptr %3, i32 0, i32 3
  %5 = load i8, ptr %4, align 8
  %6 = trunc i8 %5 to i1
  ret i1 %6
}

; Function Attrs: mustprogress nounwind uwtable
define linkonce_odr hidden void @_ZN22ReferenceLocateClosureC2ER12RootCallbackN13OldObjectRoot6SystemENS2_4TypeEPKv(ptr noundef nonnull align 8 dereferenceable(49) %0, ptr noundef nonnull align 8 dereferenceable(8) %1, i32 noundef %2, i32 noundef %3, ptr noundef %4) unnamed_addr #1 comdat align 2 {
  %6 = alloca ptr, align 8
  %7 = alloca ptr, align 8
  %8 = alloca i32, align 4
  %9 = alloca i32, align 4
  %10 = alloca ptr, align 8
  store ptr %0, ptr %6, align 8
  store ptr %1, ptr %7, align 8
  store i32 %2, ptr %8, align 4
  store i32 %3, ptr %9, align 4
  store ptr %4, ptr %10, align 8
  %11 = load ptr, ptr %6, align 8
  call void @_ZN10OopClosureC2Ev(ptr noundef nonnull align 8 dereferenceable(8) %11) #7
  store ptr getelementptr inbounds inrange(-16, 16) ({ [4 x ptr] }, ptr @_ZTV22ReferenceLocateClosure, i32 0, i32 0, i32 2), ptr %11, align 8
  %12 = getelementptr inbounds %class.ReferenceLocateClosure, ptr %11, i32 0, i32 1
  %13 = load ptr, ptr %7, align 8
  store ptr %13, ptr %12, align 8
  %14 = getelementptr inbounds %class.ReferenceLocateClosure, ptr %11, i32 0, i32 2
  call void @llvm.memset.p0.i64(ptr align 8 %14, i8 0, i64 32, i1 false)
  %15 = getelementptr inbounds %class.ReferenceLocateClosure, ptr %11, i32 0, i32 3
  store i8 0, ptr %15, align 8
  %16 = getelementptr inbounds %class.ReferenceLocateClosure, ptr %11, i32 0, i32 2
  %17 = getelementptr inbounds %struct.RootCallbackInfo, ptr %16, i32 0, i32 0
  store ptr null, ptr %17, align 8
  %18 = getelementptr inbounds %class.ReferenceLocateClosure, ptr %11, i32 0, i32 2
  %19 = getelementptr inbounds %struct.RootCallbackInfo, ptr %18, i32 0, i32 1
  store ptr null, ptr %19, align 8
  %20 = load i32, ptr %8, align 4
  %21 = getelementptr inbounds %class.ReferenceLocateClosure, ptr %11, i32 0, i32 2
  %22 = getelementptr inbounds %struct.RootCallbackInfo, ptr %21, i32 0, i32 3
  store i32 %20, ptr %22, align 8
  %23 = load i32, ptr %9, align 4
  %24 = getelementptr inbounds %class.ReferenceLocateClosure, ptr %11, i32 0, i32 2
  %25 = getelementptr inbounds %struct.RootCallbackInfo, ptr %24, i32 0, i32 4
  store i32 %23, ptr %25, align 4
  %26 = load ptr, ptr %10, align 8
  %27 = getelementptr inbounds %class.ReferenceLocateClosure, ptr %11, i32 0, i32 2
  %28 = getelementptr inbounds %struct.RootCallbackInfo, ptr %27, i32 0, i32 2
  store ptr %26, ptr %28, align 8
  ret void
}

; Function Attrs: mustprogress nounwind uwtable
define hidden noundef zeroext i1 @_ZN28ReferenceToThreadRootClosure20do_java_threads_oopsEP10JavaThread(ptr noundef nonnull align 8 dereferenceable(9) %0, ptr noundef %1) #1 align 2 {
  %3 = alloca ptr, align 8
  %4 = alloca ptr, align 8
  %5 = alloca %class.ReferenceLocateClosure, align 8
  store ptr %0, ptr %3, align 8
  store ptr %1, ptr %4, align 8
  %6 = load ptr, ptr %3, align 8
  %7 = getelementptr inbounds %class.ReferenceToThreadRootClosure, ptr %6, i32 0, i32 0
  %8 = load ptr, ptr %7, align 8
  %9 = load ptr, ptr %4, align 8
  call void @_ZN22ReferenceLocateClosureC2ER12RootCallbackN13OldObjectRoot6SystemENS2_4TypeEPKv(ptr noundef nonnull align 8 dereferenceable(49) %5, ptr noundef nonnull align 8 dereferenceable(8) %8, i32 noundef 2, i32 noundef 3, ptr noundef %9)
  %10 = load ptr, ptr %4, align 8
  call void @_ZN6Thread7oops_doEP10OopClosureP14NMethodClosure(ptr noundef nonnull align 8 dereferenceable(888) %10, ptr noundef %5, ptr noundef null)
  %11 = call noundef zeroext i1 @_ZNK22ReferenceLocateClosure8completeEv(ptr noundef nonnull align 8 dereferenceable(49) %5)
  ret i1 %11
}