; Function Attrs: mustprogress nounwind uwtable
define hidden noundef zeroext i1 @_ZN28ReferenceToThreadRootClosure20do_java_threads_oopsEP10JavaThread(ptr nocapture noundef nonnull readonly align 8 dereferenceable(9) %0, ptr noundef nonnull %1) local_unnamed_addr #0 align 2 {
  %3 = alloca %class.ReferenceLocateClosure, align 8
  %4 = load ptr, ptr %0, align 8
  store ptr getelementptr inbounds inrange(-16, 16) (i8, ptr @_ZTV22ReferenceLocateClosure, i64 16), ptr %3, align 8
  %5 = getelementptr inbounds i8, ptr %3, i64 8
  store ptr %4, ptr %5, align 8
  %6 = getelementptr inbounds i8, ptr %3, i64 16
  %7 = getelementptr inbounds i8, ptr %3, i64 40
  call void @llvm.memset.p0.i64(ptr noundef nonnull align 8 dereferenceable(33) %6, i8 0, i64 33, i1 false)
  store i32 2, ptr %7, align 8
  %8 = getelementptr inbounds i8, ptr %3, i64 44
  store i32 3, ptr %8, align 4
  %9 = getelementptr inbounds i8, ptr %3, i64 32
  store ptr %1, ptr %9, align 8
  call void @_ZN6Thread7oops_doEP10OopClosureP14NMethodClosure(ptr noundef nonnull align 8 dereferenceable(888) %1, ptr noundef nonnull %3, ptr noundef null) #8
  %10 = getelementptr inbounds i8, ptr %3, i64 48
  %11 = load i8, ptr %10, align 8
  %12 = trunc i8 %11 to i1
  ret i1 %12
}